target datalayout = "e-m:e-p270:32:32-p271:32:32-p272:64:64-i64:64-i128:128-f80:128-n8:16:32:64-S128"
target triple = "x86_64-pc-linux-gnu"

%"class.std::_Function_base" = type { %"union.std::_Any_data", ptr }
%"union.std::_Any_data" = type { %"union.std::_Nocopy_types" }
%"union.std::_Nocopy_types" = type { { i64, i64 } }
%"struct.folly::detail::SingletonThreadLocalState::LocalCache" = type { ptr }
%"struct.folly::test::DSchedThreadId" = type { i32 }
%"struct.folly::test::(anonymous namespace)::PerThreadState" = type { ptr, ptr, i8, %"struct.folly::test::DSchedThreadId", %"class.std::function.59" }
%"class.std::function.59" = type { %"class.std::_Function_base", ptr }
%"struct.folly::SingletonThreadLocal<folly::test::(anonymous namespace)::PerThreadState>::ObjectWrapper" = type { %"struct.folly::test::(anonymous namespace)::PerThreadState" }

@_ZZN5folly20SingletonThreadLocalINS_4test12_GLOBAL__N_114PerThreadStateENS_6detail10DefaultTagENS4_11DefaultMakeIS3_EEvE3getEvE5cache = internal thread_local global %"struct.folly::detail::SingletonThreadLocalState::LocalCache" zeroinitializer, align 8

; Function Attrs: mustprogress uwtable
define linkonce_odr void @_ZN5folly4test9Semaphore4waitEv(ptr noundef nonnull align 8 dereferenceable(112) %0) #6 comdat align 2 {
  %2 = alloca ptr, align 8
  store ptr %0, ptr %2, align 8, !tbaa !176
  %3 = load ptr, ptr %2, align 8
  call void @_ZN5folly4test9Semaphore4waitIZNS1_4waitEvEUlvE_ZNS1_4waitEvEUlvE0_EEvT_T0_(ptr noundef nonnull align 8 dereferenceable(112) %3)
  ret void
}

; Function Attrs: alwaysinline mustprogress uwtable
define internal noundef nonnull align 8 dereferenceable(56) ptr @_ZN5folly20SingletonThreadLocalINS_4test12_GLOBAL__N_114PerThreadStateENS_6detail10DefaultTagENS4_11DefaultMakeIS3_EEvE3getEv() #14 align 2 {
  %1 = alloca ptr, align 8
  call void @llvm.lifetime.start.p0(i64 8, ptr %1) #2
  %2 = call align 8 ptr @llvm.threadlocal.address.p0(ptr align 8 @_ZZN5folly20SingletonThreadLocalINS_4test12_GLOBAL__N_114PerThreadStateENS_6detail10DefaultTagENS4_11DefaultMakeIS3_EEvE3getEvE5cache)
  %3 = getelementptr inbounds nuw %"struct.folly::detail::SingletonThreadLocalState::LocalCache", ptr %2, i32 0, i32 0
  %4 = load ptr, ptr %3, align 8, !tbaa !174
  store ptr %4, ptr %1, align 8, !tbaa !130
  %5 = load ptr, ptr %1, align 8, !tbaa !130
  %6 = icmp ne ptr %5, null
  %7 = xor i1 %6, true
  %8 = xor i1 %7, true
  %9 = zext i1 %8 to i64
  %10 = call i64 @llvm.expect.i64(i64 %9, i64 1)
  %11 = icmp ne i64 %10, 0
  br i1 %11, label %12, label %14

12:                                               ; preds = %0
  %13 = load ptr, ptr %1, align 8, !tbaa !130
  br label %18

14:                                               ; preds = %0
  %15 = call align 8 ptr @llvm.threadlocal.address.p0(ptr align 8 @_ZZN5folly20SingletonThreadLocalINS_4test12_GLOBAL__N_114PerThreadStateENS_6detail10DefaultTagENS4_11DefaultMakeIS3_EEvE3getEvE5cache)
  %16 = call noundef nonnull align 8 dereferenceable(168) ptr @_ZN5folly20SingletonThreadLocalINS_4test12_GLOBAL__N_114PerThreadStateENS_6detail10DefaultTagENS4_11DefaultMakeIS3_EEvE7getSlowERNS4_25SingletonThreadLocalState10LocalCacheE(ptr noundef nonnull align 8 dereferenceable(8) %15)
  %17 = getelementptr inbounds nuw %"struct.folly::SingletonThreadLocal<folly::test::(anonymous namespace)::PerThreadState>::ObjectWrapper", ptr %16, i32 0, i32 0
  br label %18

18:                                               ; preds = %14, %12
  %19 = phi ptr [ %13, %12 ], [ %17, %14 ]
  call void @llvm.lifetime.end.p0(i64 8, ptr %1) #2
  ret ptr %19
}

; Function Attrs: mustprogress uwtable
define void @_ZN5folly4test21DeterministicSchedule18beforeSharedAccessEv() #6 align 2 {
  %1 = alloca ptr, align 8
  call void @llvm.lifetime.start.p0(i64 8, ptr %1) #2
  %2 = call noundef nonnull align 8 dereferenceable(56) ptr @_ZN5folly20SingletonThreadLocalINS_4test12_GLOBAL__N_114PerThreadStateENS_6detail10DefaultTagENS4_11DefaultMakeIS3_EEvE3getEv()
  store ptr %2, ptr %1, align 8, !tbaa !130
  %3 = load ptr, ptr %1, align 8, !tbaa !130
  %4 = getelementptr inbounds nuw %"struct.folly::test::(anonymous namespace)::PerThreadState", ptr %3, i32 0, i32 0
  %5 = load ptr, ptr %4, align 8, !tbaa !163
  %6 = icmp ne ptr %5, null
  br i1 %6, label %7, label %11

7:                                                ; preds = %0
  %8 = load ptr, ptr %1, align 8, !tbaa !130
  %9 = getelementptr inbounds nuw %"struct.folly::test::(anonymous namespace)::PerThreadState", ptr %8, i32 0, i32 0
  %10 = load ptr, ptr %9, align 8, !tbaa !163
  call void @_ZN5folly4test9Semaphore4waitEv(ptr noundef nonnull align 8 dereferenceable(112) %10)
  br label %11

11:                                               ; preds = %7, %0
  call void @llvm.lifetime.end.p0(i64 8, ptr %1) #2
  ret void
}